target datalayout = "e-m:e-p270:32:32-p271:32:32-p272:64:64-i64:64-i128:128-f80:128-n8:16:32:64-S128"
target triple = "x86_64-pc-linux-gnu"

%struct.Vec_Int_t_ = type { i32, i32, ptr }

@Bac_NameToRanges.vBits = internal global ptr @Bac_NameToRanges.Bits, align 8
@Bac_NameToRanges.pArray = internal global [10 x i32] zeroinitializer, align 16

; Function Attrs: inlinehint nounwind uwtable
define internal void @Vec_IntGrow(ptr noundef %0, i32 noundef %1) #2 {
  %3 = alloca ptr, align 8
  %4 = alloca i32, align 4
  store ptr %0, ptr %3, align 8, !tbaa !21
  store i32 %1, ptr %4, align 4, !tbaa !8
  %5 = load ptr, ptr %3, align 8, !tbaa !21
  %6 = getelementptr inbounds nuw %struct.Vec_Int_t_, ptr %5, i32 0, i32 0
  %7 = load i32, ptr %6, align 8, !tbaa !35
  %8 = load i32, ptr %4, align 4, !tbaa !8
  %9 = icmp sge i32 %7, %8
  br i1 %9, label %10, label %11

10:                                               ; preds = %2
  br label %36

11:                                               ; preds = %2
  %12 = load ptr, ptr %3, align 8, !tbaa !21
  %13 = getelementptr inbounds nuw %struct.Vec_Int_t_, ptr %12, i32 0, i32 2
  %14 = load ptr, ptr %13, align 8, !tbaa !33
  %15 = icmp ne ptr %14, null
  br i1 %15, label %16, label %24

16:                                               ; preds = %11
  %17 = load ptr, ptr %3, align 8, !tbaa !21
  %18 = getelementptr inbounds nuw %struct.Vec_Int_t_, ptr %17, i32 0, i32 2
  %19 = load ptr, ptr %18, align 8, !tbaa !33
  %20 = load i32, ptr %4, align 4, !tbaa !8
  %21 = sext i32 %20 to i64
  %22 = mul i64 4, %21
  %23 = call ptr @realloc(ptr noundef %19, i64 noundef %22) #14
  br label %29

24:                                               ; preds = %11
  %25 = load i32, ptr %4, align 4, !tbaa !8
  %26 = sext i32 %25 to i64
  %27 = mul i64 4, %26
  %28 = call noalias ptr @malloc(i64 noundef %27) #12
  br label %29

29:                                               ; preds = %24, %16
  %30 = phi ptr [ %23, %16 ], [ %28, %24 ]
  %31 = load ptr, ptr %3, align 8, !tbaa !21
  %32 = getelementptr inbounds nuw %struct.Vec_Int_t_, ptr %31, i32 0, i32 2
  store ptr %30, ptr %32, align 8, !tbaa !33
  %33 = load i32, ptr %4, align 4, !tbaa !8
  %34 = load ptr, ptr %3, align 8, !tbaa !21
  %35 = getelementptr inbounds nuw %struct.Vec_Int_t_, ptr %34, i32 0, i32 0
  store i32 %33, ptr %35, align 8, !tbaa !35
  br label %36

36:                                               ; preds = %29, %10
  ret void
}

; Function Attrs: inlinehint nounwind uwtable
define internal void @Vec_IntPush(ptr noundef %0, i32 noundef %1) #2 {
  %3 = alloca ptr, align 8
  %4 = alloca i32, align 4
  store ptr %0, ptr %3, align 8, !tbaa !21
  store i32 %1, ptr %4, align 4, !tbaa !8
  %5 = load ptr, ptr %3, align 8, !tbaa !21
  %6 = getelementptr inbounds nuw %struct.Vec_Int_t_, ptr %5, i32 0, i32 1
  %7 = load i32, ptr %6, align 4, !tbaa !32
  %8 = load ptr, ptr %3, align 8, !tbaa !21
  %9 = getelementptr inbounds nuw %struct.Vec_Int_t_, ptr %8, i32 0, i32 0
  %10 = load i32, ptr %9, align 8, !tbaa !35
  %11 = icmp eq i32 %7, %10
  br i1 %11, label %12, label %26

12:                                               ; preds = %2
  %13 = load ptr, ptr %3, align 8, !tbaa !21
  %14 = getelementptr inbounds nuw %struct.Vec_Int_t_, ptr %13, i32 0, i32 0
  %15 = load i32, ptr %14, align 8, !tbaa !35
  %16 = icmp slt i32 %15, 16
  br i1 %16, label %17, label %19

17:                                               ; preds = %12
  %18 = load ptr, ptr %3, align 8, !tbaa !21
  call void @Vec_IntGrow(ptr noundef %18, i32 noundef 16)
  br label %25

19:                                               ; preds = %12
  %20 = load ptr, ptr %3, align 8, !tbaa !21
  %21 = load ptr, ptr %3, align 8, !tbaa !21
  %22 = getelementptr inbounds nuw %struct.Vec_Int_t_, ptr %21, i32 0, i32 0
  %23 = load i32, ptr %22, align 8, !tbaa !35
  %24 = mul nsw i32 2, %23
  call void @Vec_IntGrow(ptr noundef %20, i32 noundef %24)
  br label %25

25:                                               ; preds = %19, %17
  br label %26

26:                                               ; preds = %25, %2
  %27 = load i32, ptr %4, align 4, !tbaa !8
  %28 = load ptr, ptr %3, align 8, !tbaa !21
  %29 = getelementptr inbounds nuw %struct.Vec_Int_t_, ptr %28, i32 0, i32 2
  %30 = load ptr, ptr %29, align 8, !tbaa !33
  %31 = load ptr, ptr %3, align 8, !tbaa !21
  %32 = getelementptr inbounds nuw %struct.Vec_Int_t_, ptr %31, i32 0, i32 1
  %33 = load i32, ptr %32, align 4, !tbaa !32
  %34 = add nsw i32 %33, 1
  store i32 %34, ptr %32, align 4, !tbaa !32
  %35 = sext i32 %33 to i64
  %36 = getelementptr inbounds i32, ptr %30, i64 %35
  store i32 %27, ptr %36, align 4, !tbaa !8
  ret void
}

; Function Attrs: inlinehint nounwind uwtable
define internal i32 @Bac_CharIsDigit(i8 noundef signext %0) #2 {
  %2 = alloca i8, align 1
  store i8 %0, ptr %2, align 1, !tbaa !29
  %3 = load i8, ptr %2, align 1, !tbaa !29
  %4 = sext i8 %3 to i32
  %5 = icmp sge i32 %4, 48
  br i1 %5, label %6, label %10

6:                                                ; preds = %1
  %7 = load i8, ptr %2, align 1, !tbaa !29
  %8 = sext i8 %7 to i32
  %9 = icmp sle i32 %8, 57
  br label %10

10:                                               ; preds = %6, %1
  %11 = phi i1 [ false, %1 ], [ %9, %6 ]
  %12 = zext i1 %11 to i32
  ret i32 %12
}

; Function Attrs: nounwind uwtable
define ptr @Bac_NameToRanges(ptr noundef %0) #0 {
  %2 = alloca ptr, align 8
  %3 = alloca ptr, align 8
  %4 = alloca i32, align 4
  %5 = alloca i32, align 4
  store ptr %0, ptr %2, align 8, !tbaa !13
  call void @llvm.lifetime.start.p0(i64 8, ptr %3) #10
  call void @llvm.lifetime.start.p0(i64 4, ptr %4) #10
  store i32 0, ptr %4, align 4, !tbaa !8
  call void @llvm.lifetime.start.p0(i64 4, ptr %5) #10
  store i32 0, ptr %5, align 4, !tbaa !8
  %6 = load ptr, ptr @Bac_NameToRanges.vBits, align 8, !tbaa !21
  %7 = getelementptr inbounds nuw %struct.Vec_Int_t_, ptr %6, i32 0, i32 2
  store ptr @Bac_NameToRanges.pArray, ptr %7, align 8, !tbaa !33
  %8 = load ptr, ptr @Bac_NameToRanges.vBits, align 8, !tbaa !21
  %9 = getelementptr inbounds nuw %struct.Vec_Int_t_, ptr %8, i32 0, i32 1
  store i32 0, ptr %9, align 4, !tbaa !32
  %10 = load ptr, ptr @Bac_NameToRanges.vBits, align 8, !tbaa !21
  %11 = getelementptr inbounds nuw %struct.Vec_Int_t_, ptr %10, i32 0, i32 0
  store i32 10, ptr %11, align 8, !tbaa !35
  %12 = load ptr, ptr %2, align 8, !tbaa !13
  store ptr %12, ptr %3, align 8, !tbaa !13
  br label %13

13:                                               ; preds = %27, %1
  %14 = load ptr, ptr %3, align 8, !tbaa !13
  %15 = load i8, ptr %14, align 1, !tbaa !29
  %16 = sext i8 %15 to i32
  %17 = icmp ne i32 %16, 0
  br i1 %17, label %18, label %24

18:                                               ; preds = %13
  %19 = load ptr, ptr %3, align 8, !tbaa !13
  %20 = load i8, ptr %19, align 1, !tbaa !29
  %21 = call i32 @Bac_CharIsDigit(i8 noundef signext %20)
  %22 = icmp ne i32 %21, 0
  %23 = xor i1 %22, true
  br label %24

24:                                               ; preds = %18, %13
  %25 = phi i1 [ false, %13 ], [ %23, %18 ]
  br i1 %25, label %26, label %30

26:                                               ; preds = %24
  br label %27

27:                                               ; preds = %26
  %28 = load ptr, ptr %3, align 8, !tbaa !13
  %29 = getelementptr inbounds nuw i8, ptr %28, i32 1
  store ptr %29, ptr %3, align 8, !tbaa !13
  br label %13, !llvm.loop !36

30:                                               ; preds = %24
  br label %31

31:                                               ; preds = %55, %30
  %32 = load ptr, ptr %3, align 8, !tbaa !13
  %33 = load i8, ptr %32, align 1, !tbaa !29
  %34 = icmp ne i8 %33, 0
  br i1 %34, label %35, label %58

35:                                               ; preds = %31
  %36 = load ptr, ptr %3, align 8, !tbaa !13
  %37 = load i8, ptr %36, align 1, !tbaa !29
  %38 = call i32 @Bac_CharIsDigit(i8 noundef signext %37)
  %39 = icmp ne i32 %38, 0
  br i1 %39, label %40, label %48

40:                                               ; preds = %35
  %41 = load i32, ptr %4, align 4, !tbaa !8
  %42 = mul nsw i32 10, %41
  %43 = load ptr, ptr %3, align 8, !tbaa !13
  %44 = load i8, ptr %43, align 1, !tbaa !29
  %45 = sext i8 %44 to i32
  %46 = add nsw i32 %42, %45
  %47 = sub nsw i32 %46, 48
  store i32 %47, ptr %4, align 4, !tbaa !8
  br label %54

48:                                               ; preds = %35
  %49 = load ptr, ptr @Bac_NameToRanges.vBits, align 8, !tbaa !21
  %50 = load i32, ptr %4, align 4, !tbaa !8
  call void @Vec_IntPush(ptr noundef %49, i32 noundef %50)
  %51 = load i32, ptr %4, align 4, !tbaa !8
  %52 = load i32, ptr %5, align 4, !tbaa !8
  %53 = add nsw i32 %52, %51
  store i32 %53, ptr %5, align 4, !tbaa !8
  store i32 0, ptr %4, align 4, !tbaa !8
  br label %54

54:                                               ; preds = %48, %40
  br label %55

55:                                               ; preds = %54
  %56 = load ptr, ptr %3, align 8, !tbaa !13
  %57 = getelementptr inbounds nuw i8, ptr %56, i32 1
  store ptr %57, ptr %3, align 8, !tbaa !13
  br label %31, !llvm.loop !37

58:                                               ; preds = %31
  %59 = load ptr, ptr @Bac_NameToRanges.vBits, align 8, !tbaa !21
  %60 = load i32, ptr %4, align 4, !tbaa !8
  call void @Vec_IntPush(ptr noundef %59, i32 noundef %60)
  %61 = load i32, ptr %4, align 4, !tbaa !8
  %62 = load i32, ptr %5, align 4, !tbaa !8
  %63 = add nsw i32 %62, %61
  store i32 %63, ptr %5, align 4, !tbaa !8
  %64 = load ptr, ptr @Bac_NameToRanges.vBits, align 8, !tbaa !21
  call void @llvm.lifetime.end.p0(i64 4, ptr %5) #10
  call void @llvm.lifetime.end.p0(i64 4, ptr %4) #10
  call void @llvm.lifetime.end.p0(i64 8, ptr %3) #10
  ret ptr %64
}