; Function Attrs: nounwind uwtable
define noundef nonnull ptr @Bac_NameToRanges(ptr noundef readonly captures(none) %0) local_unnamed_addr #6 {
  store ptr @Bac_NameToRanges.pArray, ptr getelementptr inbounds nuw (i8, ptr @Bac_NameToRanges.Bits, i64 8), align 8, !tbaa !23
  store i32 0, ptr getelementptr inbounds nuw (i8, ptr @Bac_NameToRanges.Bits, i64 4), align 4, !tbaa !22
  store i32 10, ptr @Bac_NameToRanges.Bits, align 8, !tbaa !28
  br label %2

2:                                                ; preds = %2, %1
  %.016 = phi ptr [ %0, %1 ], [ %6, %2 ]
  %3 = load i8, ptr %.016, align 1, !tbaa !25
  %.not = icmp ne i8 %3, 0
  %4 = add i8 %3, -58
  %5 = icmp ult i8 %4, -10
  %or.cond = and i1 %.not, %5
  %6 = getelementptr inbounds nuw i8, ptr %.016, i64 1
  br i1 %or.cond, label %2, label %.critedge.preheader, !llvm.loop !29

.critedge.preheader:                              ; preds = %2
  %.not2029 = icmp eq i8 %3, 0
  br i1 %.not2029, label %Vec_IntPush.exit27, label %.lr.ph

.lr.ph:                                           ; preds = %.critedge.preheader, %.critedge
  %7 = phi ptr [ %.pre.i33, %.critedge ], [ @Bac_NameToRanges.pArray, %.critedge.preheader ]
  %8 = phi i8 [ %40, %.critedge ], [ %3, %.critedge.preheader ]
  %.01431 = phi i32 [ %.115, %.critedge ], [ 0, %.critedge.preheader ]
  %.11730 = phi ptr [ %39, %.critedge ], [ %.016, %.critedge.preheader ]
  %9 = add i8 %8, -58
  %10 = icmp ult i8 %9, -10
  br i1 %10, label %16, label %11

11:                                               ; preds = %.lr.ph
  %12 = mul nsw i32 %.01431, 10
  %13 = zext nneg i8 %8 to i32
  %14 = add i32 %12, -48
  %15 = add i32 %14, %13
  br label %.critedge

16:                                               ; preds = %.lr.ph
  %17 = load i32, ptr getelementptr inbounds nuw (i8, ptr @Bac_NameToRanges.Bits, i64 4), align 4, !tbaa !22
  %18 = load i32, ptr @Bac_NameToRanges.Bits, align 8, !tbaa !28
  %19 = icmp eq i32 %17, %18
  br i1 %19, label %20, label %Vec_IntPush.exit

20:                                               ; preds = %16
  %21 = icmp slt i32 %17, 16
  br i1 %21, label %22, label %27

22:                                               ; preds = %20
  %.not9.i.i = icmp eq ptr %7, null
  br i1 %.not9.i.i, label %25, label %23

23:                                               ; preds = %22
  %24 = tail call dereferenceable_or_null(64) ptr @realloc(ptr noundef nonnull %7, i64 noundef 64) #23
  br label %Vec_IntPush.exit.sink.split

25:                                               ; preds = %22
  %26 = tail call noalias dereferenceable_or_null(64) ptr @malloc(i64 noundef 64) #24
  br label %Vec_IntPush.exit.sink.split

27:                                               ; preds = %20
  %28 = shl nuw nsw i32 %17, 1
  %.not9.i9.i = icmp eq ptr %7, null
  %29 = zext nneg i32 %28 to i64
  %30 = shl nuw nsw i64 %29, 2
  br i1 %.not9.i9.i, label %33, label %31

31:                                               ; preds = %27
  %32 = tail call ptr @realloc(ptr noundef nonnull %7, i64 noundef %30) #23
  br label %Vec_IntPush.exit.sink.split

33:                                               ; preds = %27
  %34 = tail call noalias ptr @malloc(i64 noundef %30) #24
  br label %Vec_IntPush.exit.sink.split

Vec_IntPush.exit.sink.split:                      ; preds = %31, %33, %23, %25
  %.sink41 = phi ptr [ %24, %23 ], [ %26, %25 ], [ %32, %31 ], [ %34, %33 ]
  %.sink = phi i32 [ 16, %23 ], [ 16, %25 ], [ %28, %31 ], [ %28, %33 ]
  store ptr %.sink41, ptr getelementptr inbounds nuw (i8, ptr @Bac_NameToRanges.Bits, i64 8), align 8, !tbaa !23
  store i32 %.sink, ptr @Bac_NameToRanges.Bits, align 8, !tbaa !28
  br label %Vec_IntPush.exit

Vec_IntPush.exit:                                 ; preds = %Vec_IntPush.exit.sink.split, %16
  %.pre.i34 = phi ptr [ %7, %16 ], [ %.sink41, %Vec_IntPush.exit.sink.split ]
  %35 = load i32, ptr getelementptr inbounds nuw (i8, ptr @Bac_NameToRanges.Bits, i64 4), align 4, !tbaa !22
  %36 = add nsw i32 %35, 1
  store i32 %36, ptr getelementptr inbounds nuw (i8, ptr @Bac_NameToRanges.Bits, i64 4), align 4, !tbaa !22
  %37 = sext i32 %35 to i64
  %38 = getelementptr inbounds i32, ptr %.pre.i34, i64 %37
  store i32 %.01431, ptr %38, align 4, !tbaa !24
  br label %.critedge

.critedge:                                        ; preds = %11, %Vec_IntPush.exit
  %.pre.i33 = phi ptr [ %7, %11 ], [ %.pre.i34, %Vec_IntPush.exit ]
  %.115 = phi i32 [ %15, %11 ], [ 0, %Vec_IntPush.exit ]
  %39 = getelementptr inbounds nuw i8, ptr %.11730, i64 1
  %40 = load i8, ptr %39, align 1, !tbaa !25
  %.not20 = icmp eq i8 %40, 0
  br i1 %.not20, label %.critedge._crit_edge, label %.lr.ph, !llvm.loop !30

.critedge._crit_edge:                             ; preds = %.critedge
  %.pre = load i32, ptr getelementptr inbounds nuw (i8, ptr @Bac_NameToRanges.Bits, i64 4), align 4, !tbaa !22
  %.pre36 = load i32, ptr @Bac_NameToRanges.Bits, align 8, !tbaa !28
  %41 = icmp eq i32 %.pre, %.pre36
  br i1 %41, label %42, label %Vec_IntPush.exit27

42:                                               ; preds = %.critedge._crit_edge
  %43 = icmp slt i32 %.pre36, 16
  br i1 %43, label %44, label %49

44:                                               ; preds = %42
  %.not9.i.i25 = icmp eq ptr %.pre.i33, null
  br i1 %.not9.i.i25, label %47, label %45

45:                                               ; preds = %44
  %46 = tail call dereferenceable_or_null(64) ptr @realloc(ptr noundef nonnull %.pre.i33, i64 noundef 64) #23
  br label %Vec_IntPush.exit27.sink.split

47:                                               ; preds = %44
  %48 = tail call noalias dereferenceable_or_null(64) ptr @malloc(i64 noundef 64) #24
  br label %Vec_IntPush.exit27.sink.split

49:                                               ; preds = %42
  %50 = shl nuw nsw i32 %.pre36, 1
  %.not9.i9.i24 = icmp eq ptr %.pre.i33, null
  %51 = zext nneg i32 %50 to i64
  %52 = shl nuw nsw i64 %51, 2
  br i1 %.not9.i9.i24, label %55, label %53

53:                                               ; preds = %49
  %54 = tail call ptr @realloc(ptr noundef nonnull %.pre.i33, i64 noundef %52) #23
  br label %Vec_IntPush.exit27.sink.split

55:                                               ; preds = %49
  %56 = tail call noalias ptr @malloc(i64 noundef %52) #24
  br label %Vec_IntPush.exit27.sink.split

Vec_IntPush.exit27.sink.split:                    ; preds = %53, %55, %45, %47
  %.sink43 = phi ptr [ %46, %45 ], [ %48, %47 ], [ %54, %53 ], [ %56, %55 ]
  %.sink42 = phi i32 [ 16, %45 ], [ 16, %47 ], [ %50, %53 ], [ %50, %55 ]
  store ptr %.sink43, ptr getelementptr inbounds nuw (i8, ptr @Bac_NameToRanges.Bits, i64 8), align 8, !tbaa !23
  store i32 %.sink42, ptr @Bac_NameToRanges.Bits, align 8, !tbaa !28
  br label %Vec_IntPush.exit27

Vec_IntPush.exit27:                               ; preds = %Vec_IntPush.exit27.sink.split, %.critedge.preheader, %.critedge._crit_edge
  %.014.lcssa39 = phi i32 [ %.115, %.critedge._crit_edge ], [ 0, %.critedge.preheader ], [ %.115, %Vec_IntPush.exit27.sink.split ]
  %57 = phi ptr [ %.pre.i33, %.critedge._crit_edge ], [ @Bac_NameToRanges.pArray, %.critedge.preheader ], [ %.sink43, %Vec_IntPush.exit27.sink.split ]
  %58 = load i32, ptr getelementptr inbounds nuw (i8, ptr @Bac_NameToRanges.Bits, i64 4), align 4, !tbaa !22
  %59 = add nsw i32 %58, 1
  store i32 %59, ptr getelementptr inbounds nuw (i8, ptr @Bac_NameToRanges.Bits, i64 4), align 4, !tbaa !22
  %60 = sext i32 %58 to i64
  %61 = getelementptr inbounds i32, ptr %57, i64 %60
  store i32 %.014.lcssa39, ptr %61, align 4, !tbaa !24
  ret ptr @Bac_NameToRanges.Bits
}